target datalayout = "e-m:e-p270:32:32-p271:32:32-p272:64:64-i64:64-i128:128-f80:128-n8:16:32:64-S128"
target triple = "x86_64-pc-linux-gnu"

; Function Attrs: nounwind uwtable
define dso_local i32 @luaL_newmetatable(ptr noundef %0, ptr noundef %1) #0 {
  %3 = alloca i32, align 4
  %4 = alloca ptr, align 8
  %5 = alloca ptr, align 8
  store ptr %0, ptr %4, align 8, !tbaa !4
  store ptr %1, ptr %5, align 8, !tbaa !11
  %6 = load ptr, ptr %4, align 8, !tbaa !4
  %7 = load ptr, ptr %5, align 8, !tbaa !11
  call void @lua_getfield(ptr noundef %6, i32 noundef -10000, ptr noundef %7)
  %8 = load ptr, ptr %4, align 8, !tbaa !4
  %9 = call i32 @lua_type(ptr noundef %8, i32 noundef -1)
  %10 = icmp eq i32 %9, 0
  br i1 %10, label %12, label %11

11:                                               ; preds = %2
  store i32 0, ptr %3, align 4
  br label %18

12:                                               ; preds = %2
  %13 = load ptr, ptr %4, align 8, !tbaa !4
  call void @lua_settop(ptr noundef %13, i32 noundef -2)
  %14 = load ptr, ptr %4, align 8, !tbaa !4
  call void @lua_createtable(ptr noundef %14, i32 noundef 0, i32 noundef 0)
  %15 = load ptr, ptr %4, align 8, !tbaa !4
  call void @lua_pushvalue(ptr noundef %15, i32 noundef -1)
  %16 = load ptr, ptr %4, align 8, !tbaa !4
  %17 = load ptr, ptr %5, align 8, !tbaa !11
  call void @lua_setfield(ptr noundef %16, i32 noundef -10000, ptr noundef %17)
  store i32 1, ptr %3, align 4
  br label %18

18:                                               ; preds = %12, %11
  %19 = load i32, ptr %3, align 4
  ret i32 %19
}