; Function Attrs: nounwind uwtable
define dso_local range(i32 0, 2) i32 @luaL_newmetatable(ptr noundef %0, ptr noundef %1) local_unnamed_addr #0 {
  tail call void @lua_getfield(ptr noundef %0, i32 noundef -10000, ptr noundef %1) #17
  %3 = tail call i32 @lua_type(ptr noundef %0, i32 noundef -1) #17
  %4 = icmp eq i32 %3, 0
  br i1 %4, label %5, label %6

5:                                                ; preds = %2
  tail call void @lua_settop(ptr noundef %0, i32 noundef -2) #17
  tail call void @lua_createtable(ptr noundef %0, i32 noundef 0, i32 noundef 0) #17
  tail call void @lua_pushvalue(ptr noundef %0, i32 noundef -1) #17
  tail call void @lua_setfield(ptr noundef %0, i32 noundef -10000, ptr noundef %1) #17
  br label %6

6:                                                ; preds = %2, %5
  %.0 = phi i32 [ 1, %5 ], [ 0, %2 ]
  ret i32 %.0
}